target datalayout = "e-m:e-p270:32:32-p271:32:32-p272:64:64-i64:64-i128:128-f80:128-n8:16:32:64-S128"
target triple = "x86_64-pc-linux-gnu"

%struct.bn_gencb_st = type { ptr, ptr }

; Function Attrs: mustprogress uwtable
define internal noundef i32 @_ZL16GenerateCallbackiiP11bn_gencb_st(i32 noundef %0, i32 noundef %1, ptr noundef %2) #2 {
  %4 = alloca i32, align 4
  %5 = alloca i32, align 4
  %6 = alloca ptr, align 8
  %7 = alloca i8, align 1
  %8 = alloca ptr, align 8
  store i32 %0, ptr %4, align 4, !tbaa !6
  store i32 %1, ptr %5, align 4, !tbaa !6
  store ptr %2, ptr %6, align 8, !tbaa !46
  call void @llvm.lifetime.start.p0(i64 1, ptr %7) #15
  store i8 42, ptr %7, align 1, !tbaa !27
  %9 = load i32, ptr %4, align 4, !tbaa !6
  %10 = icmp eq i32 %9, 0
  br i1 %10, label %11, label %12

11:                                               ; preds = %3
  store i8 46, ptr %7, align 1, !tbaa !27
  br label %27

12:                                               ; preds = %3
  %13 = load i32, ptr %4, align 4, !tbaa !6
  %14 = icmp eq i32 %13, 1
  br i1 %14, label %15, label %16

15:                                               ; preds = %12
  store i8 43, ptr %7, align 1, !tbaa !27
  br label %26

16:                                               ; preds = %12
  %17 = load i32, ptr %4, align 4, !tbaa !6
  %18 = icmp eq i32 %17, 2
  br i1 %18, label %19, label %20

19:                                               ; preds = %16
  store i8 42, ptr %7, align 1, !tbaa !27
  br label %25

20:                                               ; preds = %16
  %21 = load i32, ptr %4, align 4, !tbaa !6
  %22 = icmp eq i32 %21, 3
  br i1 %22, label %23, label %24

23:                                               ; preds = %20
  store i8 10, ptr %7, align 1, !tbaa !27
  br label %24

24:                                               ; preds = %23, %20
  br label %25

25:                                               ; preds = %24, %19
  br label %26

26:                                               ; preds = %25, %15
  br label %27

27:                                               ; preds = %26, %11
  call void @llvm.lifetime.start.p0(i64 8, ptr %8) #15
  %28 = load ptr, ptr %6, align 8, !tbaa !46
  %29 = getelementptr inbounds nuw %struct.bn_gencb_st, ptr %28, i32 0, i32 0
  %30 = load ptr, ptr %29, align 8, !tbaa !48
  store ptr %30, ptr %8, align 8, !tbaa !13
  %31 = load i8, ptr %7, align 1, !tbaa !27
  %32 = sext i8 %31 to i32
  %33 = load ptr, ptr %8, align 8, !tbaa !13
  %34 = call i32 @fputc(i32 noundef %32, ptr noundef %33)
  %35 = load ptr, ptr %8, align 8, !tbaa !13
  %36 = call i32 @fflush(ptr noundef %35)
  call void @llvm.lifetime.end.p0(i64 8, ptr %8) #15
  call void @llvm.lifetime.end.p0(i64 1, ptr %7) #15
  ret i32 1
}