; Function Attrs: mustprogress nofree nounwind uwtable
define internal noundef i32 @_ZL16GenerateCallbackiiP11bn_gencb_st(i32 noundef %0, i32 %1, ptr noundef readonly captures(none) %2) #4 {
  %4 = icmp ult i32 %0, 4
  br i1 %4, label %switch.lookup, label %.fold.split

switch.lookup:                                    ; preds = %3
  %5 = zext nneg i32 %0 to i64
  %switch.gep = getelementptr inbounds nuw [4 x i32], ptr @switch.table._ZL16GenerateCallbackiiP11bn_gencb_st, i64 0, i64 %5
  %switch.load = load i32, ptr %switch.gep, align 4
  br label %.fold.split

.fold.split:                                      ; preds = %3, %switch.lookup
  %.0 = phi i32 [ %switch.load, %switch.lookup ], [ 42, %3 ]
  %6 = load ptr, ptr %2, align 8, !tbaa !48
  %7 = tail call i32 @fputc(i32 noundef %.0, ptr noundef %6)
  %8 = tail call i32 @fflush(ptr noundef %6)
  ret i32 1
}